
Bin/Kernel.bin:     file format elf32-i386
Bin/Kernel.bin
architecture: i386, flags 0x00000112:
EXEC_P, HAS_SYMS, D_PAGED
start address 0x00100020

SYMBOL TABLE:
00100000 l    d  .text	00000000 .text
00100084 l    d  .eh_frame	00000000 .eh_frame
00101000 l    d  .bss	00000000 .bss
00000000 l    df *ABS*	00000000 Source/Start.asm
00000001 l       *ABS*	00000000 MBOOT_PAGE_ALIGN
00000002 l       *ABS*	00000000 MBOOT_MEM_INFO
00000004 l       *ABS*	00000000 MBOOT_VID_INFO
1badb002 l       *ABS*	00000000 MBOOT_HEADER_MAGIC
00000003 l       *ABS*	00000000 MBOOT_HEADER_FLAGS
e4524ffb l       *ABS*	00000000 MBOOT_CHECKSUM
00000000 l    df *ABS*	00000000 Kernel.c
00101000 g       .eh_frame	00000000 start_ctors
00101000 g       .eh_frame	00000000 _bss_start
00111000 g       .bss	00000000 _kernel_end
00111000 g       .bss	00000000 _bss_end
00111000 g       .bss	00000000 _stack_top
00100000 g       .text	00000000 _mboot
00100020 g       .text	00000000 _start
00101000 g       .eh_frame	00000000 end_ctors
00100044 g     F .text	0000003f main
00101000 g       .bss	00000000 _stack_bottom
00100000 g       .text	00000000 _kernel_start



Disassembly of section .text:

00100000 <_kernel_start>:
  100000:	02 b0 ad 1b 03 00    	add    dh,BYTE PTR [eax+0x31bad]
  100006:	00 00                	add    BYTE PTR [eax],al
  100008:	fb                   	sti    
  100009:	4f                   	dec    edi
  10000a:	52                   	push   edx
  10000b:	e4 00                	in     al,0x0
  10000d:	00 10                	add    BYTE PTR [eax],dl
	...
  10001b:	00 20                	add    BYTE PTR [eax],ah
  10001d:	00 10                	add    BYTE PTR [eax],dl
	...

00100020 <_start>:
  100020:	fa                   	cli    
  100021:	bd 00 10 11 00       	mov    ebp,0x111000
  100026:	89 ec                	mov    esp,ebp
  100028:	bf 00 10 10 00       	mov    edi,0x101000
  10002d:	b9 00 10 11 00       	mov    ecx,0x111000
  100032:	81 e9 00 10 10 00    	sub    ecx,0x101000
  100038:	b0 00                	mov    al,0x0
  10003a:	f3 aa                	rep stos BYTE PTR es:[edi],al
  10003c:	53                   	push   ebx
  10003d:	e8 02 00 00 00       	call   100044 <main>
  100042:	fa                   	cli    
  100043:	f4                   	hlt    

00100044 <main>:
  100044:	55                   	push   ebp
  100045:	89 e5                	mov    ebp,esp
  100047:	83 ec 10             	sub    esp,0x10
  10004a:	c7 45 f8 00 80 0b 00 	mov    DWORD PTR [ebp-0x8],0xb8000
  100051:	c7 45 fc 00 00 00 00 	mov    DWORD PTR [ebp-0x4],0x0
  100058:	eb 1d                	jmp    100077 <main+0x33>
  10005a:	8b 55 fc             	mov    edx,DWORD PTR [ebp-0x4]
  10005d:	8b 45 f8             	mov    eax,DWORD PTR [ebp-0x8]
  100060:	01 d0                	add    eax,edx
  100062:	c6 00 58             	mov    BYTE PTR [eax],0x58
  100065:	8b 45 fc             	mov    eax,DWORD PTR [ebp-0x4]
  100068:	8d 50 01             	lea    edx,[eax+0x1]
  10006b:	8b 45 f8             	mov    eax,DWORD PTR [ebp-0x8]
  10006e:	01 d0                	add    eax,edx
  100070:	c6 00 1e             	mov    BYTE PTR [eax],0x1e
  100073:	83 45 fc 02          	add    DWORD PTR [ebp-0x4],0x2
  100077:	81 7d fc 9f 0f 00 00 	cmp    DWORD PTR [ebp-0x4],0xf9f
  10007e:	7e da                	jle    10005a <main+0x16>
  100080:	90                   	nop
  100081:	c9                   	leave  
  100082:	c3                   	ret    
